target datalayout = "e-m:e-p270:32:32-p271:32:32-p272:64:64-i64:64-i128:128-f80:128-n8:16:32:64-S128"
target triple = "x86_64-pc-linux-gnu"

%struct.ForEachState = type { ptr, i32 }
%union.ListCell = type { ptr }
%struct.Query = type { i32, i32, i32, i64, i8, ptr, i32, i8, i8, i8, i8, i8, i8, i8, i8, i8, i8, i8, ptr, ptr, ptr, ptr, ptr, i32, ptr, ptr, i32, ptr, ptr, ptr, ptr, ptr, i8, ptr, ptr, ptr, ptr, ptr, ptr, ptr, i32, ptr, ptr, ptr, ptr, i32, i32 }
%struct.List = type { i32, i32, i32, ptr, [0 x %union.ListCell] }
%struct.PlannerInfo = type { i32, ptr, ptr, i32, ptr, ptr, ptr, ptr, i32, ptr, ptr, ptr, ptr, ptr, ptr, ptr, ptr, i32, ptr, ptr, ptr, ptr, ptr, i8, ptr, ptr, ptr, ptr, ptr, i32, ptr, ptr, ptr, ptr, ptr, ptr, ptr, i32, ptr, ptr, ptr, i32, ptr, ptr, ptr, ptr, ptr, ptr, [8 x ptr], [8 x ptr], ptr, ptr, ptr, ptr, ptr, ptr, ptr, double, double, double, i32, i8, i8, i8, i8, i8, i8, i8, i32, ptr, ptr, i32, i8, i8, i32, ptr, ptr, ptr, ptr, ptr, ptr, i8, ptr }
%struct.reduce_outer_joins_pass2_state = type { ptr, ptr }
%struct.reduce_outer_joins_pass1_state = type { ptr, i8, ptr }
%struct.reduce_outer_joins_partial_state = type { i32, ptr }

@.str.2 = private unnamed_addr constant [15 x i8] c"prepjointree.c\00", align 1
@.str.4 = private unnamed_addr constant [30 x i8] c"so where are the outer joins?\00", align 1
@__func__.reduce_outer_joins = private unnamed_addr constant [19 x i8] c"reduce_outer_joins\00", align 1

; Function Attrs: nounwind uwtable
define dso_local void @reduce_outer_joins(ptr noundef %0) #0 {
  %2 = alloca ptr, align 8
  %3 = alloca ptr, align 8
  %4 = alloca %struct.reduce_outer_joins_pass2_state, align 8
  %5 = alloca ptr, align 8
  %6 = alloca %struct.ForEachState, align 8
  %7 = alloca ptr, align 8
  %8 = alloca ptr, align 8
  store ptr %0, ptr %2, align 8
  call void @llvm.lifetime.start.p0(i64 8, ptr %3) #8
  call void @llvm.lifetime.start.p0(i64 16, ptr %4) #8
  call void @llvm.lifetime.start.p0(i64 8, ptr %5) #8
  %9 = load ptr, ptr %2, align 8
  %10 = getelementptr inbounds nuw %struct.PlannerInfo, ptr %9, i32 0, i32 1
  %11 = load ptr, ptr %10, align 8
  %12 = getelementptr inbounds nuw %struct.Query, ptr %11, i32 0, i32 21
  %13 = load ptr, ptr %12, align 8
  %14 = call ptr @reduce_outer_joins_pass1(ptr noundef %13)
  store ptr %14, ptr %3, align 8
  %15 = load ptr, ptr %3, align 8
  %16 = icmp eq ptr %15, null
  br i1 %16, label %22, label %17

17:                                               ; preds = %1
  %18 = load ptr, ptr %3, align 8
  %19 = getelementptr inbounds nuw %struct.reduce_outer_joins_pass1_state, ptr %18, i32 0, i32 1
  %20 = load i8, ptr %19, align 8, !range !7, !noundef !8
  %21 = trunc i8 %20 to i1
  br i1 %21, label %33, label %22

22:                                               ; preds = %17, %1
  br label %23

23:                                               ; preds = %22
  br i1 true, label %24, label %26

24:                                               ; preds = %23
  %25 = call zeroext i1 @errstart_cold(i32 noundef 21, ptr noundef null) #9
  br i1 %25, label %28, label %30

26:                                               ; preds = %23
  %27 = call zeroext i1 @errstart(i32 noundef 21, ptr noundef null)
  br i1 %27, label %28, label %30

28:                                               ; preds = %26, %24
  %29 = call i32 (ptr, ...) @errmsg_internal(ptr noundef @.str.4)
  call void @errfinish(ptr noundef @.str.2, i32 noundef 3008, ptr noundef @__func__.reduce_outer_joins)
  br label %30

30:                                               ; preds = %28, %26, %24
  unreachable

31:                                               ; No predecessors!
  br label %32

32:                                               ; preds = %31
  br label %33

33:                                               ; preds = %32, %17
  %34 = getelementptr inbounds nuw %struct.reduce_outer_joins_pass2_state, ptr %4, i32 0, i32 0
  store ptr null, ptr %34, align 8
  %35 = getelementptr inbounds nuw %struct.reduce_outer_joins_pass2_state, ptr %4, i32 0, i32 1
  store ptr null, ptr %35, align 8
  %36 = load ptr, ptr %2, align 8
  %37 = getelementptr inbounds nuw %struct.PlannerInfo, ptr %36, i32 0, i32 1
  %38 = load ptr, ptr %37, align 8
  %39 = getelementptr inbounds nuw %struct.Query, ptr %38, i32 0, i32 21
  %40 = load ptr, ptr %39, align 8
  %41 = load ptr, ptr %3, align 8
  %42 = load ptr, ptr %2, align 8
  call void @reduce_outer_joins_pass2(ptr noundef %40, ptr noundef %41, ptr noundef %4, ptr noundef %42, ptr noundef null, ptr noundef null)
  %43 = getelementptr inbounds nuw %struct.reduce_outer_joins_pass2_state, ptr %4, i32 0, i32 0
  %44 = load ptr, ptr %43, align 8
  %45 = icmp eq ptr %44, null
  br i1 %45, label %63, label %46

46:                                               ; preds = %33
  %47 = load ptr, ptr %2, align 8
  %48 = getelementptr inbounds nuw %struct.PlannerInfo, ptr %47, i32 0, i32 1
  %49 = load ptr, ptr %48, align 8
  %50 = getelementptr inbounds nuw %struct.reduce_outer_joins_pass2_state, ptr %4, i32 0, i32 0
  %51 = load ptr, ptr %50, align 8
  %52 = call ptr @remove_nulling_relids(ptr noundef %49, ptr noundef %51, ptr noundef null)
  %53 = load ptr, ptr %2, align 8
  %54 = getelementptr inbounds nuw %struct.PlannerInfo, ptr %53, i32 0, i32 1
  store ptr %52, ptr %54, align 8
  %55 = load ptr, ptr %2, align 8
  %56 = getelementptr inbounds nuw %struct.PlannerInfo, ptr %55, i32 0, i32 32
  %57 = load ptr, ptr %56, align 8
  %58 = getelementptr inbounds nuw %struct.reduce_outer_joins_pass2_state, ptr %4, i32 0, i32 0
  %59 = load ptr, ptr %58, align 8
  %60 = call ptr @remove_nulling_relids(ptr noundef %57, ptr noundef %59, ptr noundef null)
  %61 = load ptr, ptr %2, align 8
  %62 = getelementptr inbounds nuw %struct.PlannerInfo, ptr %61, i32 0, i32 32
  store ptr %60, ptr %62, align 8
  br label %63

63:                                               ; preds = %46, %33
  call void @llvm.lifetime.start.p0(i64 16, ptr %6) #8
  %64 = getelementptr inbounds nuw %struct.ForEachState, ptr %6, i32 0, i32 0
  %65 = getelementptr inbounds nuw %struct.reduce_outer_joins_pass2_state, ptr %4, i32 0, i32 1
  %66 = load ptr, ptr %65, align 8
  store ptr %66, ptr %64, align 8
  %67 = getelementptr inbounds nuw %struct.ForEachState, ptr %6, i32 0, i32 1
  store i32 0, ptr %67, align 8
  %68 = getelementptr i8, ptr %6, i64 12
  call void @llvm.memset.p0.i64(ptr align 4 %68, i8 0, i64 4, i1 false)
  br label %69

69:                                               ; preds = %122, %63
  %70 = getelementptr inbounds nuw %struct.ForEachState, ptr %6, i32 0, i32 0
  %71 = load ptr, ptr %70, align 8
  %72 = icmp ne ptr %71, null
  br i1 %72, label %73, label %90

73:                                               ; preds = %69
  %74 = getelementptr inbounds nuw %struct.ForEachState, ptr %6, i32 0, i32 1
  %75 = load i32, ptr %74, align 8
  %76 = getelementptr inbounds nuw %struct.ForEachState, ptr %6, i32 0, i32 0
  %77 = load ptr, ptr %76, align 8
  %78 = getelementptr inbounds nuw %struct.List, ptr %77, i32 0, i32 1
  %79 = load i32, ptr %78, align 4
  %80 = icmp slt i32 %75, %79
  br i1 %80, label %81, label %90

81:                                               ; preds = %73
  %82 = getelementptr inbounds nuw %struct.ForEachState, ptr %6, i32 0, i32 0
  %83 = load ptr, ptr %82, align 8
  %84 = getelementptr inbounds nuw %struct.List, ptr %83, i32 0, i32 3
  %85 = load ptr, ptr %84, align 8
  %86 = getelementptr inbounds nuw %struct.ForEachState, ptr %6, i32 0, i32 1
  %87 = load i32, ptr %86, align 8
  %88 = sext i32 %87 to i64
  %89 = getelementptr inbounds %union.ListCell, ptr %85, i64 %88
  store ptr %89, ptr %5, align 8
  br label %91

90:                                               ; preds = %73, %69
  store ptr null, ptr %5, align 8
  br label %91

91:                                               ; preds = %90, %81
  %92 = phi i32 [ 1, %81 ], [ 0, %90 ]
  %93 = icmp ne i32 %92, 0
  br i1 %93, label %95, label %94

94:                                               ; preds = %91
  call void @llvm.lifetime.end.p0(i64 16, ptr %6) #8
  br label %126

95:                                               ; preds = %91
  call void @llvm.lifetime.start.p0(i64 8, ptr %7) #8
  %96 = load ptr, ptr %5, align 8
  %97 = load ptr, ptr %96, align 8
  store ptr %97, ptr %7, align 8
  call void @llvm.lifetime.start.p0(i64 8, ptr %8) #8
  %98 = load ptr, ptr %7, align 8
  %99 = getelementptr inbounds nuw %struct.reduce_outer_joins_partial_state, ptr %98, i32 0, i32 0
  %100 = load i32, ptr %99, align 8
  %101 = call ptr @bms_make_singleton(i32 noundef %100)
  store ptr %101, ptr %8, align 8
  %102 = load ptr, ptr %2, align 8
  %103 = getelementptr inbounds nuw %struct.PlannerInfo, ptr %102, i32 0, i32 1
  %104 = load ptr, ptr %103, align 8
  %105 = load ptr, ptr %8, align 8
  %106 = load ptr, ptr %7, align 8
  %107 = getelementptr inbounds nuw %struct.reduce_outer_joins_partial_state, ptr %106, i32 0, i32 1
  %108 = load ptr, ptr %107, align 8
  %109 = call ptr @remove_nulling_relids(ptr noundef %104, ptr noundef %105, ptr noundef %108)
  %110 = load ptr, ptr %2, align 8
  %111 = getelementptr inbounds nuw %struct.PlannerInfo, ptr %110, i32 0, i32 1
  store ptr %109, ptr %111, align 8
  %112 = load ptr, ptr %2, align 8
  %113 = getelementptr inbounds nuw %struct.PlannerInfo, ptr %112, i32 0, i32 32
  %114 = load ptr, ptr %113, align 8
  %115 = load ptr, ptr %8, align 8
  %116 = load ptr, ptr %7, align 8
  %117 = getelementptr inbounds nuw %struct.reduce_outer_joins_partial_state, ptr %116, i32 0, i32 1
  %118 = load ptr, ptr %117, align 8
  %119 = call ptr @remove_nulling_relids(ptr noundef %114, ptr noundef %115, ptr noundef %118)
  %120 = load ptr, ptr %2, align 8
  %121 = getelementptr inbounds nuw %struct.PlannerInfo, ptr %120, i32 0, i32 32
  store ptr %119, ptr %121, align 8
  call void @llvm.lifetime.end.p0(i64 8, ptr %8) #8
  call void @llvm.lifetime.end.p0(i64 8, ptr %7) #8
  br label %122

122:                                              ; preds = %95
  %123 = getelementptr inbounds nuw %struct.ForEachState, ptr %6, i32 0, i32 1
  %124 = load i32, ptr %123, align 8
  %125 = add i32 %124, 1
  store i32 %125, ptr %123, align 8
  br label %69, !llvm.loop !15

126:                                              ; preds = %94
  call void @llvm.lifetime.end.p0(i64 8, ptr %5) #8
  call void @llvm.lifetime.end.p0(i64 16, ptr %4) #8
  call void @llvm.lifetime.end.p0(i64 8, ptr %3) #8
  ret void
}