; Function Attrs: nounwind uwtable
define dso_local void @reduce_outer_joins(ptr noundef %0) local_unnamed_addr #0 {
  %2 = alloca %struct.reduce_outer_joins_pass2_state, align 8
  call void @llvm.lifetime.start.p0(i64 16, ptr nonnull %2) #7
  %3 = getelementptr inbounds nuw i8, ptr %0, i64 8
  %4 = load ptr, ptr %3, align 8
  %5 = getelementptr inbounds nuw i8, ptr %4, i64 80
  %6 = load ptr, ptr %5, align 8
  %7 = tail call fastcc ptr @reduce_outer_joins_pass1(ptr noundef %6)
  %8 = icmp eq ptr %7, null
  br i1 %8, label %13, label %9

9:                                                ; preds = %1
  %10 = getelementptr inbounds nuw i8, ptr %7, i64 8
  %11 = load i8, ptr %10, align 8, !range !4, !noundef !5
  %12 = trunc nuw i8 %11 to i1
  br i1 %12, label %16, label %13

13:                                               ; preds = %9, %1
  %14 = tail call zeroext i1 @errstart_cold(i32 noundef 21, ptr noundef null) #8
  tail call void @llvm.assume(i1 %14)
  %15 = tail call i32 (ptr, ...) @errmsg_internal(ptr noundef nonnull @.str.4) #7
  tail call void @errfinish(ptr noundef nonnull @.str.2, i32 noundef 3008, ptr noundef nonnull @__func__.reduce_outer_joins) #7
  unreachable

16:                                               ; preds = %9
  %17 = getelementptr inbounds nuw i8, ptr %2, i64 8
  call void @llvm.memset.p0.i64(ptr noundef nonnull align 8 dereferenceable(16) %2, i8 0, i64 16, i1 false)
  %18 = load ptr, ptr %3, align 8
  %19 = getelementptr inbounds nuw i8, ptr %18, i64 80
  %20 = load ptr, ptr %19, align 8
  call fastcc void @reduce_outer_joins_pass2(ptr noundef %20, ptr noundef nonnull %7, ptr noundef %2, ptr noundef nonnull %0, ptr noundef null, ptr noundef null)
  %21 = load ptr, ptr %2, align 8
  %22 = icmp eq ptr %21, null
  br i1 %22, label %30, label %23

23:                                               ; preds = %16
  %24 = load ptr, ptr %3, align 8
  %25 = call ptr @remove_nulling_relids(ptr noundef %24, ptr noundef nonnull %21, ptr noundef null) #7
  store ptr %25, ptr %3, align 8
  %26 = getelementptr inbounds nuw i8, ptr %0, i64 256
  %27 = load ptr, ptr %26, align 8
  %28 = load ptr, ptr %2, align 8
  %29 = call ptr @remove_nulling_relids(ptr noundef %27, ptr noundef %28, ptr noundef null) #7
  store ptr %29, ptr %26, align 8
  br label %30

30:                                               ; preds = %23, %16
  %31 = load ptr, ptr %17, align 8
  %32 = getelementptr inbounds nuw i8, ptr %31, i64 4
  %.not = icmp eq ptr %31, null
  br i1 %.not, label %._crit_edge, label %.lr.ph

.lr.ph:                                           ; preds = %30
  %33 = getelementptr inbounds nuw i8, ptr %31, i64 16
  %34 = getelementptr inbounds nuw i8, ptr %0, i64 256
  %35 = load i32, ptr %32, align 4
  %36 = icmp sgt i32 %35, 0
  br i1 %36, label %.lr.ph33, label %._crit_edge

._crit_edge:                                      ; preds = %.lr.ph33, %.lr.ph, %30
  call void @llvm.lifetime.end.p0(i64 16, ptr nonnull %2) #7
  ret void

.lr.ph33:                                         ; preds = %.lr.ph, %.lr.ph33
  %indvars.iv = phi i64 [ %indvars.iv.next, %.lr.ph33 ], [ 0, %.lr.ph ]
  %37 = load ptr, ptr %33, align 8
  %38 = getelementptr inbounds nuw %union.ListCell, ptr %37, i64 %indvars.iv
  %39 = load ptr, ptr %38, align 8
  %40 = load i32, ptr %39, align 8
  %41 = call ptr @bms_make_singleton(i32 noundef %40) #7
  %42 = load ptr, ptr %3, align 8
  %43 = getelementptr inbounds nuw i8, ptr %39, i64 8
  %44 = load ptr, ptr %43, align 8
  %45 = call ptr @remove_nulling_relids(ptr noundef %42, ptr noundef %41, ptr noundef %44) #7
  store ptr %45, ptr %3, align 8
  %46 = load ptr, ptr %34, align 8
  %47 = load ptr, ptr %43, align 8
  %48 = call ptr @remove_nulling_relids(ptr noundef %46, ptr noundef %41, ptr noundef %47) #7
  store ptr %48, ptr %34, align 8
  %indvars.iv.next = add nuw nsw i64 %indvars.iv, 1
  %49 = load i32, ptr %32, align 4
  %50 = sext i32 %49 to i64
  %51 = icmp slt i64 %indvars.iv.next, %50
  br i1 %51, label %.lr.ph33, label %._crit_edge
}